; Function Attrs: mustprogress uwtable
define void @_ZN32pxrInternal_v0_24__pxrReserved__30UsdImagingDataSourcePointsPrim10InvalidateERKNS_7UsdPrimERKNS_7TfTokenERKSt6vectorIS4_SaIS4_EENS_34UsdImagingPropertyInvalidationTypeE(ptr dead_on_unwind noalias writable sret(%"class.pxrInternal_v0_24__pxrReserved__::HdDataSourceLocatorSet") align 8 %0, ptr noundef nonnull align 8 dereferenceable(32) %1, ptr noundef nonnull align 8 dereferenceable(8) %2, ptr noundef nonnull align 8 dereferenceable(24) %3, i32 noundef %4) local_unnamed_addr #0 align 2 personality ptr @__gxx_personality_v0 {
  %6 = alloca %"class.pxrInternal_v0_24__pxrReserved__::HdDataSourceLocatorSet", align 8
  tail call void @_ZN32pxrInternal_v0_24__pxrReserved__25UsdImagingDataSourceGprim10InvalidateERKNS_7UsdPrimERKNS_7TfTokenERKSt6vectorIS4_SaIS4_EENS_34UsdImagingPropertyInvalidationTypeE(ptr dead_on_unwind writable sret(%"class.pxrInternal_v0_24__pxrReserved__::HdDataSourceLocatorSet") align 8 %0, ptr noundef nonnull align 8 dereferenceable(32) %1, ptr noundef nonnull align 8 dereferenceable(8) %2, ptr noundef nonnull align 8 dereferenceable(24) %3, i32 noundef %4)
  %7 = load ptr, ptr %2, align 8
  %8 = icmp eq ptr %7, null
  br i1 %8, label %9, label %_ZN32pxrInternal_v0_24__pxrReserved__22HdDataSourceLocatorSetD2Ev.exit

9:                                                ; preds = %5
  invoke fastcc void @_ZN32pxrInternal_v0_24__pxrReserved__L25_GetCustomPrimvarMappingsERKNS_7UsdPrimE()
          to label %10 unwind label %46

10:                                               ; preds = %9
  invoke void @_ZN32pxrInternal_v0_24__pxrReserved__34UsdImagingDataSourceCustomPrimvars10InvalidateERKSt6vectorINS_7TfTokenESaIS2_EERKS1_INS0_7MappingESaIS7_EE(ptr dead_on_unwind nonnull writable sret(%"class.pxrInternal_v0_24__pxrReserved__::HdDataSourceLocatorSet") align 8 %6, ptr noundef nonnull align 8 dereferenceable(24) %3, ptr noundef nonnull align 8 dereferenceable(24) @_ZZN32pxrInternal_v0_24__pxrReserved__L25_GetCustomPrimvarMappingsERKNS_7UsdPrimEE8mappings)
          to label %11 unwind label %46

11:                                               ; preds = %10
  invoke void @_ZN32pxrInternal_v0_24__pxrReserved__22HdDataSourceLocatorSet6insertEOS0_(ptr noundef nonnull align 8 dereferenceable(456) %0, ptr noundef nonnull align 8 dereferenceable(456) %6)
          to label %12 unwind label %48

12:                                               ; preds = %11
  %13 = getelementptr inbounds nuw i8, ptr %6, i64 452
  %14 = load i32, ptr %13, align 4
  %15 = icmp ult i32 %14, 9
  %16 = load ptr, ptr %6, align 8
  %spec.select.i.i.i.i.i = select i1 %15, ptr %6, ptr %16
  %17 = getelementptr inbounds nuw i8, ptr %6, i64 448
  %18 = load i32, ptr %17, align 8
  %19 = zext i32 %18 to i64
  %20 = getelementptr inbounds nuw %"class.pxrInternal_v0_24__pxrReserved__::HdDataSourceLocator", ptr %spec.select.i.i.i.i.i, i64 %19
  %.not7.i.i.i = icmp eq i32 %18, 0
  br i1 %.not7.i.i.i, label %_ZN32pxrInternal_v0_24__pxrReserved__13TfSmallVectorINS_19HdDataSourceLocatorELj8EE9_DestructEv.exit.i.i, label %.lr.ph.i.i.i

.lr.ph.i.i.i:                                     ; preds = %12, %_ZN32pxrInternal_v0_24__pxrReserved__19HdDataSourceLocatorD2Ev.exit.i.i.i
  %.08.i.i.i = phi ptr [ %41, %_ZN32pxrInternal_v0_24__pxrReserved__19HdDataSourceLocatorD2Ev.exit.i.i.i ], [ %spec.select.i.i.i.i.i, %12 ]
  %21 = getelementptr inbounds nuw i8, ptr %.08.i.i.i, i64 52
  %22 = load i32, ptr %21, align 4
  %23 = icmp ult i32 %22, 7
  %24 = load ptr, ptr %.08.i.i.i, align 8
  %spec.select.i.i.i.i.i.i.i.i = select i1 %23, ptr %.08.i.i.i, ptr %24
  %25 = getelementptr inbounds nuw i8, ptr %.08.i.i.i, i64 48
  %26 = load i32, ptr %25, align 8
  %27 = zext i32 %26 to i64
  %28 = getelementptr inbounds nuw %"class.pxrInternal_v0_24__pxrReserved__::TfToken", ptr %spec.select.i.i.i.i.i.i.i.i, i64 %27
  %.not7.i.i.i.i.i.i = icmp eq i32 %26, 0
  br i1 %.not7.i.i.i.i.i.i, label %_ZN32pxrInternal_v0_24__pxrReserved__13TfSmallVectorINS_7TfTokenELj6EE9_DestructEv.exit.i.i.i.i.i, label %.lr.ph.i.i.i.i.i.i

.lr.ph.i.i.i.i.i.i:                               ; preds = %.lr.ph.i.i.i, %_ZN32pxrInternal_v0_24__pxrReserved__7TfTokenD2Ev.exit.i.i.i.i.i.i
  %.08.i.i.i.i.i.i = phi ptr [ %36, %_ZN32pxrInternal_v0_24__pxrReserved__7TfTokenD2Ev.exit.i.i.i.i.i.i ], [ %spec.select.i.i.i.i.i.i.i.i, %.lr.ph.i.i.i ]
  %29 = load ptr, ptr %.08.i.i.i.i.i.i, align 8
  %30 = ptrtoint ptr %29 to i64
  %31 = and i64 %30, 7
  %.not.i.i.i.i.i.i.i.i = icmp eq i64 %31, 0
  br i1 %.not.i.i.i.i.i.i.i.i, label %_ZN32pxrInternal_v0_24__pxrReserved__7TfTokenD2Ev.exit.i.i.i.i.i.i, label %32

32:                                               ; preds = %.lr.ph.i.i.i.i.i.i
  %33 = and i64 %30, -8
  %34 = inttoptr i64 %33 to ptr
  %35 = atomicrmw sub ptr %34, i32 2 release, align 4
  br label %_ZN32pxrInternal_v0_24__pxrReserved__7TfTokenD2Ev.exit.i.i.i.i.i.i

_ZN32pxrInternal_v0_24__pxrReserved__7TfTokenD2Ev.exit.i.i.i.i.i.i: ; preds = %32, %.lr.ph.i.i.i.i.i.i
  %36 = getelementptr inbounds nuw i8, ptr %.08.i.i.i.i.i.i, i64 8
  %.not.i.i.i.i.i.i = icmp eq ptr %36, %28
  br i1 %.not.i.i.i.i.i.i, label %_ZN32pxrInternal_v0_24__pxrReserved__13TfSmallVectorINS_7TfTokenELj6EE9_DestructEv.exit.loopexit.i.i.i.i.i, label %.lr.ph.i.i.i.i.i.i, !llvm.loop !12

_ZN32pxrInternal_v0_24__pxrReserved__13TfSmallVectorINS_7TfTokenELj6EE9_DestructEv.exit.loopexit.i.i.i.i.i: ; preds = %_ZN32pxrInternal_v0_24__pxrReserved__7TfTokenD2Ev.exit.i.i.i.i.i.i
  %.pre.i.i.i.i.i = load i32, ptr %21, align 4
  br label %_ZN32pxrInternal_v0_24__pxrReserved__13TfSmallVectorINS_7TfTokenELj6EE9_DestructEv.exit.i.i.i.i.i

_ZN32pxrInternal_v0_24__pxrReserved__13TfSmallVectorINS_7TfTokenELj6EE9_DestructEv.exit.i.i.i.i.i: ; preds = %_ZN32pxrInternal_v0_24__pxrReserved__13TfSmallVectorINS_7TfTokenELj6EE9_DestructEv.exit.loopexit.i.i.i.i.i, %.lr.ph.i.i.i
  %37 = phi i32 [ %.pre.i.i.i.i.i, %_ZN32pxrInternal_v0_24__pxrReserved__13TfSmallVectorINS_7TfTokenELj6EE9_DestructEv.exit.loopexit.i.i.i.i.i ], [ %22, %.lr.ph.i.i.i ]
  %38 = icmp ult i32 %37, 7
  br i1 %38, label %_ZN32pxrInternal_v0_24__pxrReserved__19HdDataSourceLocatorD2Ev.exit.i.i.i, label %39

39:                                               ; preds = %_ZN32pxrInternal_v0_24__pxrReserved__13TfSmallVectorINS_7TfTokenELj6EE9_DestructEv.exit.i.i.i.i.i
  %40 = load ptr, ptr %.08.i.i.i, align 8
  call void @free(ptr noundef %40) #15
  br label %_ZN32pxrInternal_v0_24__pxrReserved__19HdDataSourceLocatorD2Ev.exit.i.i.i

_ZN32pxrInternal_v0_24__pxrReserved__19HdDataSourceLocatorD2Ev.exit.i.i.i: ; preds = %39, %_ZN32pxrInternal_v0_24__pxrReserved__13TfSmallVectorINS_7TfTokenELj6EE9_DestructEv.exit.i.i.i.i.i
  %41 = getelementptr inbounds nuw i8, ptr %.08.i.i.i, i64 56
  %.not.i.i.i = icmp eq ptr %41, %20
  br i1 %.not.i.i.i, label %_ZN32pxrInternal_v0_24__pxrReserved__13TfSmallVectorINS_19HdDataSourceLocatorELj8EE9_DestructEv.exit.loopexit.i.i, label %.lr.ph.i.i.i, !llvm.loop !14

_ZN32pxrInternal_v0_24__pxrReserved__13TfSmallVectorINS_19HdDataSourceLocatorELj8EE9_DestructEv.exit.loopexit.i.i: ; preds = %_ZN32pxrInternal_v0_24__pxrReserved__19HdDataSourceLocatorD2Ev.exit.i.i.i
  %.pre.i.i = load i32, ptr %13, align 4
  br label %_ZN32pxrInternal_v0_24__pxrReserved__13TfSmallVectorINS_19HdDataSourceLocatorELj8EE9_DestructEv.exit.i.i

_ZN32pxrInternal_v0_24__pxrReserved__13TfSmallVectorINS_19HdDataSourceLocatorELj8EE9_DestructEv.exit.i.i: ; preds = %_ZN32pxrInternal_v0_24__pxrReserved__13TfSmallVectorINS_19HdDataSourceLocatorELj8EE9_DestructEv.exit.loopexit.i.i, %12
  %42 = phi i32 [ %.pre.i.i, %_ZN32pxrInternal_v0_24__pxrReserved__13TfSmallVectorINS_19HdDataSourceLocatorELj8EE9_DestructEv.exit.loopexit.i.i ], [ %14, %12 ]
  %43 = icmp ult i32 %42, 9
  br i1 %43, label %_ZN32pxrInternal_v0_24__pxrReserved__22HdDataSourceLocatorSetD2Ev.exit, label %44

44:                                               ; preds = %_ZN32pxrInternal_v0_24__pxrReserved__13TfSmallVectorINS_19HdDataSourceLocatorELj8EE9_DestructEv.exit.i.i
  %45 = load ptr, ptr %6, align 8
  call void @free(ptr noundef %45) #15
  br label %_ZN32pxrInternal_v0_24__pxrReserved__22HdDataSourceLocatorSetD2Ev.exit

46:                                               ; preds = %9, %10
  %47 = landingpad { ptr, i32 }
          cleanup
  br label %50

48:                                               ; preds = %11
  %49 = landingpad { ptr, i32 }
          cleanup
  call void @_ZN32pxrInternal_v0_24__pxrReserved__22HdDataSourceLocatorSetD2Ev(ptr noundef nonnull align 8 dereferenceable(456) %6) #15
  br label %50

_ZN32pxrInternal_v0_24__pxrReserved__22HdDataSourceLocatorSetD2Ev.exit: ; preds = %44, %_ZN32pxrInternal_v0_24__pxrReserved__13TfSmallVectorINS_19HdDataSourceLocatorELj8EE9_DestructEv.exit.i.i, %5
  ret void

50:                                               ; preds = %48, %46
  %.pn = phi { ptr, i32 } [ %49, %48 ], [ %47, %46 ]
  call void @_ZN32pxrInternal_v0_24__pxrReserved__22HdDataSourceLocatorSetD2Ev(ptr noundef nonnull align 8 dereferenceable(456) %0) #15
  resume { ptr, i32 } %.pn
}